; Function Attrs: mustprogress uwtable
define void @_ZN7rocksdb12ErrorHandler30CancelErrorRecoveryForShutDownEv(ptr noundef nonnull align 8 dereferenceable(288) initializes((152, 153)) %0) local_unnamed_addr #4 align 2 {
  %2 = getelementptr inbounds nuw i8, ptr %0, i64 144
  %3 = load ptr, ptr %2, align 8, !tbaa !40
  tail call void @_ZNK7rocksdb4port5Mutex10AssertHeldEv(ptr noundef nonnull align 8 dereferenceable(60) %3)
  %4 = getelementptr inbounds nuw i8, ptr %0, i64 152
  store i8 0, ptr %4, align 8, !tbaa !82
  %5 = getelementptr inbounds nuw i8, ptr %0, i64 8
  %6 = load ptr, ptr %5, align 8, !tbaa !83
  %7 = getelementptr inbounds nuw i8, ptr %6, i64 40
  %8 = load ptr, ptr %7, align 8, !tbaa !84
  %.not = icmp eq ptr %8, null
  br i1 %.not, label %15, label %9

9:                                                ; preds = %1
  %10 = load ptr, ptr %2, align 8, !tbaa !40
  tail call void @_ZN7rocksdb4port5Mutex6UnlockEv(ptr noundef nonnull align 8 dereferenceable(60) %10)
  %11 = tail call noundef zeroext i1 @_ZN7rocksdb18SstFileManagerImpl19CancelErrorRecoveryEPNS_12ErrorHandlerE(ptr noundef nonnull align 8 dereferenceable(856) %8, ptr noundef nonnull %0)
  %12 = load ptr, ptr %2, align 8, !tbaa !40
  tail call void @_ZN7rocksdb17InstrumentedMutex4LockEv(ptr noundef nonnull align 8 dereferenceable(60) %12)
  br i1 %11, label %13, label %15

13:                                               ; preds = %9
  %14 = getelementptr inbounds nuw i8, ptr %0, i64 153
  store i8 0, ptr %14, align 1, !tbaa !87
  br label %15

15:                                               ; preds = %9, %13, %1
  tail call void @_ZN7rocksdb12ErrorHandler15EndAutoRecoveryEv(ptr noundef nonnull align 8 dereferenceable(288) %0)
  ret void
}